; Function Attrs: mustprogress nofree norecurse nosync nounwind willreturn memory(argmem: read) uwtable
define noundef zeroext i1 @_ZNK13b2CircleShape9TestPointERK11b2TransformRK6b2Vec2(ptr nocapture noundef nonnull readonly align 8 dereferenceable(24) %this, ptr nocapture noundef nonnull readonly align 4 dereferenceable(16) %transform, ptr nocapture noundef nonnull readonly align 4 dereferenceable(8) %p) unnamed_addr #3 align 2 {
entry:
  %q = getelementptr inbounds i8, ptr %transform, i64 8
  %m_p = getelementptr inbounds i8, ptr %this, i64 16
  %c.i = getelementptr inbounds i8, ptr %transform, i64 12
  %0 = load float, ptr %c.i, align 4
  %1 = load float, ptr %m_p, align 8
  %2 = load float, ptr %q, align 4
  %y.i = getelementptr inbounds i8, ptr %this, i64 20
  %3 = load float, ptr %y.i, align 4
  %4 = fneg float %2
  %neg.i = fmul float %3, %4
  %5 = tail call float @llvm.fmuladd.f32(float %0, float %1, float %neg.i)
  %mul6.i = fmul float %0, %3
  %6 = tail call float @llvm.fmuladd.f32(float %2, float %1, float %mul6.i)
  %7 = load float, ptr %transform, align 4
  %add.i = fadd float %7, %5
  %y.i2 = getelementptr inbounds i8, ptr %transform, i64 4
  %8 = load float, ptr %y.i2, align 4
  %add3.i = fadd float %8, %6
  %9 = load float, ptr %p, align 4
  %sub.i = fsub float %9, %add.i
  %y.i5 = getelementptr inbounds i8, ptr %p, i64 4
  %10 = load float, ptr %y.i5, align 4
  %sub3.i = fsub float %10, %add3.i
  %mul3.i = fmul float %sub3.i, %sub3.i
  %11 = tail call noundef float @llvm.fmuladd.f32(float %sub.i, float %sub.i, float %mul3.i)
  %m_radius = getelementptr inbounds i8, ptr %this, i64 12
  %12 = load float, ptr %m_radius, align 4
  %mul = fmul float %12, %12
  %cmp = fcmp ole float %11, %mul
  ret i1 %cmp
}